target datalayout = "e-m:e-p270:32:32-p271:32:32-p272:64:64-i64:64-i128:128-f80:128-n8:16:32:64-S128"
target triple = "x86_64-pc-linux-gnu"

%struct.AVFilterContext = type { ptr, ptr, ptr, ptr, ptr, i32, ptr, ptr, i32, ptr, ptr, i32, i32, ptr, ptr, ptr, ptr, i32, ptr, i32, i32 }
%struct.OverlayContext = type { ptr, i32, i32, i8, [4 x i8], i8, i8, [4 x i8], i8, i32, i32, i32, %struct.FFFrameSync, [4 x i32], [4 x i32], i32, i32, ptr, [14 x double], ptr, ptr, ptr, ptr, [4 x ptr], ptr }
%struct.FFFrameSync = type { ptr, ptr, i32, %struct.AVRational, i64, ptr, ptr, i32, i32, i8, i8, ptr, i32, i32, i32, i32 }
%struct.AVRational = type { i32, i32 }
%struct.AVFilterFormatsConfig = type { ptr, ptr, ptr, ptr, ptr }

@alpha_pix_fmts = internal constant [12 x i32] [i32 33, i32 78, i32 79, i32 87, i32 89, i32 91, i32 25, i32 27, i32 26, i32 28, i32 111, i32 -1], align 16
@.str.3 = private unnamed_addr constant [30 x i8] c"Assertion %s failed at %s:%d\0A\00", align 1
@.str.4 = private unnamed_addr constant [2 x i8] c"0\00", align 1
@.str.5 = private unnamed_addr constant [25 x i8] c"libavfilter/vf_overlay.c\00", align 1
@query_formats.main_pix_fmts_yuv420 = internal constant [6 x i32] [i32 0, i32 12, i32 33, i32 23, i32 24, i32 -1], align 16
@query_formats.overlay_pix_fmts_yuv420 = internal constant [2 x i32] [i32 33, i32 -1], align 4
@query_formats.main_pix_fmts_yuv420p10 = internal constant [3 x i32] [i32 62, i32 87, i32 -1], align 4
@query_formats.overlay_pix_fmts_yuv420p10 = internal constant [2 x i32] [i32 87, i32 -1], align 4
@query_formats.main_pix_fmts_yuv422 = internal constant [4 x i32] [i32 4, i32 13, i32 78, i32 -1], align 16
@query_formats.overlay_pix_fmts_yuv422 = internal constant [2 x i32] [i32 78, i32 -1], align 4
@query_formats.main_pix_fmts_yuv422p10 = internal constant [3 x i32] [i32 64, i32 89, i32 -1], align 4
@query_formats.overlay_pix_fmts_yuv422p10 = internal constant [2 x i32] [i32 89, i32 -1], align 4
@query_formats.main_pix_fmts_yuv444 = internal constant [4 x i32] [i32 5, i32 14, i32 79, i32 -1], align 16
@query_formats.overlay_pix_fmts_yuv444 = internal constant [2 x i32] [i32 79, i32 -1], align 4
@query_formats.main_pix_fmts_yuv444p10 = internal constant [3 x i32] [i32 68, i32 91, i32 -1], align 4
@query_formats.overlay_pix_fmts_yuv444p10 = internal constant [2 x i32] [i32 91, i32 -1], align 4
@query_formats.main_pix_fmts_gbrp = internal constant [3 x i32] [i32 71, i32 111, i32 -1], align 4
@query_formats.overlay_pix_fmts_gbrp = internal constant [2 x i32] [i32 111, i32 -1], align 4
@query_formats.main_pix_fmts_rgb = internal constant [7 x i32] [i32 25, i32 26, i32 27, i32 28, i32 2, i32 3, i32 -1], align 16
@query_formats.overlay_pix_fmts_rgb = internal constant [5 x i32] [i32 25, i32 26, i32 27, i32 28, i32 -1], align 16

; Function Attrs: nounwind uwtable
define internal i32 @query_formats(ptr noundef %0, ptr noundef %1, ptr noundef %2) #0 {
  %4 = alloca i32, align 4
  %5 = alloca ptr, align 8
  %6 = alloca ptr, align 8
  %7 = alloca ptr, align 8
  %8 = alloca ptr, align 8
  %9 = alloca ptr, align 8
  %10 = alloca ptr, align 8
  %11 = alloca ptr, align 8
  %12 = alloca i32, align 4
  %13 = alloca i32, align 4
  store ptr %0, ptr %5, align 8, !tbaa !4
  store ptr %1, ptr %6, align 8, !tbaa !34
  store ptr %2, ptr %7, align 8, !tbaa !34
  call void @llvm.lifetime.start.p0(i64 8, ptr %8) #12
  %14 = load ptr, ptr %5, align 8, !tbaa !4
  %15 = getelementptr inbounds nuw %struct.AVFilterContext, ptr %14, i32 0, i32 9
  %16 = load ptr, ptr %15, align 8, !tbaa !9
  store ptr %16, ptr %8, align 8, !tbaa !22
  call void @llvm.lifetime.start.p0(i64 8, ptr %9) #12
  call void @llvm.lifetime.start.p0(i64 8, ptr %10) #12
  call void @llvm.lifetime.start.p0(i64 8, ptr %11) #12
  call void @llvm.lifetime.start.p0(i64 4, ptr %12) #12
  %17 = load ptr, ptr %8, align 8, !tbaa !22
  %18 = getelementptr inbounds nuw %struct.OverlayContext, ptr %17, i32 0, i32 9
  %19 = load i32, ptr %18, align 4, !tbaa !36
  switch i32 %19, label %33 [
    i32 0, label %20
    i32 1, label %21
    i32 2, label %22
    i32 3, label %23
    i32 4, label %24
    i32 5, label %25
    i32 6, label %26
    i32 7, label %27
    i32 8, label %28
  ]

20:                                               ; preds = %3
  store ptr @query_formats.main_pix_fmts_yuv420, ptr %9, align 8, !tbaa !37
  store ptr @query_formats.overlay_pix_fmts_yuv420, ptr %10, align 8, !tbaa !37
  br label %37

21:                                               ; preds = %3
  store ptr @query_formats.main_pix_fmts_yuv420p10, ptr %9, align 8, !tbaa !37
  store ptr @query_formats.overlay_pix_fmts_yuv420p10, ptr %10, align 8, !tbaa !37
  br label %37

22:                                               ; preds = %3
  store ptr @query_formats.main_pix_fmts_yuv422, ptr %9, align 8, !tbaa !37
  store ptr @query_formats.overlay_pix_fmts_yuv422, ptr %10, align 8, !tbaa !37
  br label %37

23:                                               ; preds = %3
  store ptr @query_formats.main_pix_fmts_yuv422p10, ptr %9, align 8, !tbaa !37
  store ptr @query_formats.overlay_pix_fmts_yuv422p10, ptr %10, align 8, !tbaa !37
  br label %37

24:                                               ; preds = %3
  store ptr @query_formats.main_pix_fmts_yuv444, ptr %9, align 8, !tbaa !37
  store ptr @query_formats.overlay_pix_fmts_yuv444, ptr %10, align 8, !tbaa !37
  br label %37

25:                                               ; preds = %3
  store ptr @query_formats.main_pix_fmts_yuv444p10, ptr %9, align 8, !tbaa !37
  store ptr @query_formats.overlay_pix_fmts_yuv444p10, ptr %10, align 8, !tbaa !37
  br label %37

26:                                               ; preds = %3
  store ptr @query_formats.main_pix_fmts_rgb, ptr %9, align 8, !tbaa !37
  store ptr @query_formats.overlay_pix_fmts_rgb, ptr %10, align 8, !tbaa !37
  br label %37

27:                                               ; preds = %3
  store ptr @query_formats.main_pix_fmts_gbrp, ptr %9, align 8, !tbaa !37
  store ptr @query_formats.overlay_pix_fmts_gbrp, ptr %10, align 8, !tbaa !37
  br label %37

28:                                               ; preds = %3
  %29 = load ptr, ptr %5, align 8, !tbaa !4
  %30 = load ptr, ptr %6, align 8, !tbaa !34
  %31 = load ptr, ptr %7, align 8, !tbaa !34
  %32 = call i32 @ff_set_common_formats_from_list2(ptr noundef %29, ptr noundef %30, ptr noundef %31, ptr noundef @alpha_pix_fmts)
  store i32 %32, ptr %4, align 4
  store i32 1, ptr %13, align 4
  br label %65

33:                                               ; preds = %3
  br label %34

34:                                               ; preds = %33
  call void (ptr, i32, ptr, ...) @av_log(ptr noundef null, i32 noundef 0, ptr noundef @.str.3, ptr noundef @.str.4, ptr noundef @.str.5, i32 noundef 272)
  call void @abort() #13
  unreachable

35:                                               ; No predecessors!
  br label %36

36:                                               ; preds = %35
  br label %37

37:                                               ; preds = %36, %27, %26, %25, %24, %23, %22, %21, %20
  %38 = load ptr, ptr %9, align 8, !tbaa !37
  %39 = call ptr @ff_make_format_list(ptr noundef %38)
  store ptr %39, ptr %11, align 8, !tbaa !38
  %40 = load ptr, ptr %11, align 8, !tbaa !38
  %41 = load ptr, ptr %6, align 8, !tbaa !34
  %42 = getelementptr inbounds ptr, ptr %41, i64 0
  %43 = load ptr, ptr %42, align 8, !tbaa !40
  %44 = getelementptr inbounds nuw %struct.AVFilterFormatsConfig, ptr %43, i32 0, i32 0
  %45 = call i32 @ff_formats_ref(ptr noundef %40, ptr noundef %44)
  store i32 %45, ptr %12, align 4, !tbaa !42
  %46 = icmp slt i32 %45, 0
  br i1 %46, label %55, label %47

47:                                               ; preds = %37
  %48 = load ptr, ptr %11, align 8, !tbaa !38
  %49 = load ptr, ptr %7, align 8, !tbaa !34
  %50 = getelementptr inbounds ptr, ptr %49, i64 0
  %51 = load ptr, ptr %50, align 8, !tbaa !40
  %52 = getelementptr inbounds nuw %struct.AVFilterFormatsConfig, ptr %51, i32 0, i32 0
  %53 = call i32 @ff_formats_ref(ptr noundef %48, ptr noundef %52)
  store i32 %53, ptr %12, align 4, !tbaa !42
  %54 = icmp slt i32 %53, 0
  br i1 %54, label %55, label %57

55:                                               ; preds = %47, %37
  %56 = load i32, ptr %12, align 4, !tbaa !42
  store i32 %56, ptr %4, align 4
  store i32 1, ptr %13, align 4
  br label %65

57:                                               ; preds = %47
  %58 = load ptr, ptr %10, align 8, !tbaa !37
  %59 = call ptr @ff_make_format_list(ptr noundef %58)
  %60 = load ptr, ptr %6, align 8, !tbaa !34
  %61 = getelementptr inbounds ptr, ptr %60, i64 1
  %62 = load ptr, ptr %61, align 8, !tbaa !40
  %63 = getelementptr inbounds nuw %struct.AVFilterFormatsConfig, ptr %62, i32 0, i32 0
  %64 = call i32 @ff_formats_ref(ptr noundef %59, ptr noundef %63)
  store i32 %64, ptr %4, align 4
  store i32 1, ptr %13, align 4
  br label %65

65:                                               ; preds = %57, %55, %28
  call void @llvm.lifetime.end.p0(i64 4, ptr %12) #12
  call void @llvm.lifetime.end.p0(i64 8, ptr %11) #12
  call void @llvm.lifetime.end.p0(i64 8, ptr %10) #12
  call void @llvm.lifetime.end.p0(i64 8, ptr %9) #12
  call void @llvm.lifetime.end.p0(i64 8, ptr %8) #12
  %66 = load i32, ptr %4, align 4
  ret i32 %66
}