; Function Attrs: nounwind uwtable
define internal i32 @query_formats(ptr noundef %0, ptr noundef %1, ptr noundef %2) #0 {
  %4 = getelementptr inbounds nuw i8, ptr %0, i64 72
  %5 = load ptr, ptr %4, align 8, !tbaa !4
  %6 = getelementptr inbounds nuw i8, ptr %5, i64 28
  %7 = load i32, ptr %6, align 4, !tbaa !31
  switch i32 %7, label %17 [
    i32 0, label %18
    i32 1, label %8
    i32 2, label %9
    i32 3, label %10
    i32 4, label %11
    i32 5, label %12
    i32 6, label %13
    i32 7, label %14
    i32 8, label %15
  ]

8:                                                ; preds = %3
  br label %18

9:                                                ; preds = %3
  br label %18

10:                                               ; preds = %3
  br label %18

11:                                               ; preds = %3
  br label %18

12:                                               ; preds = %3
  br label %18

13:                                               ; preds = %3
  br label %18

14:                                               ; preds = %3
  br label %18

15:                                               ; preds = %3
  %16 = tail call i32 @ff_set_common_formats_from_list2(ptr noundef nonnull %0, ptr noundef %1, ptr noundef %2, ptr noundef nonnull @alpha_pix_fmts) #10
  br label %32

17:                                               ; preds = %3
  tail call void (ptr, i32, ptr, ...) @av_log(ptr noundef null, i32 noundef 0, ptr noundef nonnull @.str.3, ptr noundef nonnull @.str.4, ptr noundef nonnull @.str.5, i32 noundef 272) #10
  tail call void @abort() #11
  unreachable

18:                                               ; preds = %3, %14, %13, %12, %11, %10, %9, %8
  %.015 = phi ptr [ @query_formats.main_pix_fmts_gbrp, %14 ], [ @query_formats.main_pix_fmts_rgb, %13 ], [ @query_formats.main_pix_fmts_yuv444p10, %12 ], [ @query_formats.main_pix_fmts_yuv444, %11 ], [ @query_formats.main_pix_fmts_yuv422p10, %10 ], [ @query_formats.main_pix_fmts_yuv422, %9 ], [ @query_formats.main_pix_fmts_yuv420p10, %8 ], [ @query_formats.main_pix_fmts_yuv420, %3 ]
  %.014 = phi ptr [ @query_formats.overlay_pix_fmts_gbrp, %14 ], [ @query_formats.overlay_pix_fmts_rgb, %13 ], [ @query_formats.overlay_pix_fmts_yuv444p10, %12 ], [ @query_formats.overlay_pix_fmts_yuv444, %11 ], [ @query_formats.overlay_pix_fmts_yuv422p10, %10 ], [ @query_formats.overlay_pix_fmts_yuv422, %9 ], [ @query_formats.overlay_pix_fmts_yuv420p10, %8 ], [ @query_formats.overlay_pix_fmts_yuv420, %3 ]
  %19 = tail call ptr @ff_make_format_list(ptr noundef nonnull %.015) #10
  %20 = load ptr, ptr %1, align 8, !tbaa !32
  %21 = tail call i32 @ff_formats_ref(ptr noundef %19, ptr noundef %20) #10
  %22 = icmp slt i32 %21, 0
  br i1 %22, label %32, label %23

23:                                               ; preds = %18
  %24 = load ptr, ptr %2, align 8, !tbaa !32
  %25 = tail call i32 @ff_formats_ref(ptr noundef %19, ptr noundef %24) #10
  %26 = icmp slt i32 %25, 0
  br i1 %26, label %32, label %27

27:                                               ; preds = %23
  %28 = tail call ptr @ff_make_format_list(ptr noundef nonnull %.014) #10
  %29 = getelementptr inbounds nuw i8, ptr %1, i64 8
  %30 = load ptr, ptr %29, align 8, !tbaa !32
  %31 = tail call i32 @ff_formats_ref(ptr noundef %28, ptr noundef %30) #10
  br label %32

32:                                               ; preds = %18, %23, %27, %15
  %.013 = phi i32 [ %16, %15 ], [ %31, %27 ], [ %21, %18 ], [ %25, %23 ]
  ret i32 %.013
}